; ModuleID = 'source-C-CXX/48/754.cpp'
source_filename = "source-C-CXX/48/754.cpp"
target datalayout = "e-m:e-p270:32:32-p271:32:32-p272:64:64-i64:64-f80:128-n8:16:32:64-S128"
target triple = "x86_64-pc-linux-gnu"

%"class.std::ios_base::Init" = type { i8 }
%"class.std::basic_istream" = type { i32 (...)**, i64, %"class.std::basic_ios" }
%"class.std::basic_ios" = type { %"class.std::ios_base", %"class.std::basic_ostream"*, i8, i8, %"class.std::basic_streambuf"*, %"class.std::ctype"*, %"class.std::num_put"*, %"class.std::num_get"* }
%"class.std::ios_base" = type { i32 (...)**, i64, i64, i32, i32, i32, %"struct.std::ios_base::_Callback_list"*, %"struct.std::ios_base::_Words", [8 x %"struct.std::ios_base::_Words"], i32, %"struct.std::ios_base::_Words"*, %"class.std::locale" }
%"struct.std::ios_base::_Callback_list" = type { %"struct.std::ios_base::_Callback_list"*, void (i32, %"class.std::ios_base"*, i32)*, i32, i32 }
%"struct.std::ios_base::_Words" = type { i8*, i64 }
%"class.std::locale" = type { %"class.std::locale::_Impl"* }
%"class.std::locale::_Impl" = type { i32, %"class.std::locale::facet"**, i64, %"class.std::locale::facet"**, i8** }
%"class.std::locale::facet" = type <{ i32 (...)**, i32, [4 x i8] }>
%"class.std::basic_ostream" = type { i32 (...)**, %"class.std::basic_ios" }
%"class.std::basic_streambuf" = type { i32 (...)**, i8*, i8*, i8*, i8*, i8*, i8*, %"class.std::locale" }
%"class.std::ctype" = type <{ %"class.std::locale::facet.base", [4 x i8], %struct.__locale_struct*, i8, [7 x i8], i32*, i32*, i16*, i8, [256 x i8], [256 x i8], i8, [6 x i8] }>
%"class.std::locale::facet.base" = type <{ i32 (...)**, i32 }>
%struct.__locale_struct = type { [13 x %struct.__locale_data*], i16*, i32*, i32*, [13 x i8*] }
%struct.__locale_data = type opaque
%"class.std::num_put" = type { %"class.std::locale::facet.base", [4 x i8] }
%"class.std::num_get" = type { %"class.std::locale::facet.base", [4 x i8] }

@_ZStL8__ioinit = internal global %"class.std::ios_base::Init" zeroinitializer, align 1
@__dso_handle = external hidden global i8
@_ZSt3cin = external global %"class.std::basic_istream", align 8
@_ZSt4cout = external global %"class.std::basic_ostream", align 8
@llvm.global_ctors = appending global [1 x { i32, void ()*, i8* }] [{ i32, void ()*, i8* } { i32 65535, void ()* @_GLOBAL__sub_I_754.cpp, i8* null }]

declare void @_ZNSt8ios_base4InitC1Ev(%"class.std::ios_base::Init"* nonnull align 1 dereferenceable(1)) unnamed_addr #0

; Function Attrs: nounwind
declare void @_ZNSt8ios_base4InitD1Ev(%"class.std::ios_base::Init"* nonnull align 1 dereferenceable(1)) unnamed_addr #1

; Function Attrs: nofree nounwind
declare i32 @__cxa_atexit(void (i8*)*, i8*, i8*) local_unnamed_addr #2

; Function Attrs: mustprogress norecurse sspstrong uwtable
define dso_local i32 @main() local_unnamed_addr #3 {
  %1 = alloca i8, align 1
  %2 = alloca [500 x i8], align 16
  %3 = getelementptr inbounds [500 x i8], [500 x i8]* %2, i64 0, i64 0
  call void @llvm.lifetime.start.p0i8(i64 500, i8* nonnull %3) #9
  call void @_ZSt17__istream_extractRSiPcl(%"class.std::basic_istream"* nonnull align 8 dereferenceable(16) @_ZSt3cin, i8* nonnull %3, i64 500)
  %4 = call i64 @strlen(i8* noundef nonnull %3) #10
  %5 = trunc i64 %4 to i32
  %6 = icmp sgt i32 %5, 1
  br i1 %6, label %7, label %133

7:                                                ; preds = %0
  %8 = add i64 %4, 1
  %9 = and i64 %8, 4294967295
  br label %10

10:                                               ; preds = %7, %128
  %11 = phi i32 [ 0, %7 ], [ %132, %128 ]
  %12 = phi i32 [ %5, %7 ], [ %19, %128 ]
  %13 = phi i64 [ 2, %7 ], [ %130, %128 ]
  %14 = phi i64 [ 1, %7 ], [ %129, %128 ]
  %15 = add i32 %11, 1
  %16 = lshr i32 %15, 1
  %17 = add nuw i32 %16, 2
  %18 = zext i32 %17 to i64
  %19 = add i32 %12, -1
  %20 = trunc i64 %14 to i32
  %21 = icmp sgt i32 %5, %20
  br i1 %21, label %22, label %128

22:                                               ; preds = %10
  %23 = lshr i32 %20, 1
  %24 = add nuw nsw i32 %23, 2
  %25 = lshr i64 %14, 1
  %26 = zext i32 %19 to i64
  %27 = zext i32 %24 to i64
  %28 = trunc i64 %25 to i32
  %29 = add i32 %28, 1
  %30 = icmp ult i32 %15, 12
  %31 = and i64 %18, 4294967288
  %32 = icmp eq i64 %31, %18
  br label %33

33:                                               ; preds = %22, %124
  %34 = phi i64 [ %13, %22 ], [ %126, %124 ]
  %35 = phi i64 [ 0, %22 ], [ %125, %124 ]
  %36 = add nuw nsw i64 %35, %14
  br i1 %30, label %69, label %37

37:                                               ; preds = %33, %37
  %38 = phi i64 [ %64, %37 ], [ 0, %33 ]
  %39 = phi <4 x i32> [ %62, %37 ], [ zeroinitializer, %33 ]
  %40 = phi <4 x i32> [ %63, %37 ], [ zeroinitializer, %33 ]
  %41 = add nuw nsw i64 %38, %35
  %42 = getelementptr inbounds [500 x i8], [500 x i8]* %2, i64 0, i64 %41
  %43 = bitcast i8* %42 to <4 x i8>*
  %44 = load <4 x i8>, <4 x i8>* %43, align 1, !tbaa !5
  %45 = getelementptr inbounds i8, i8* %42, i64 4
  %46 = bitcast i8* %45 to <4 x i8>*
  %47 = load <4 x i8>, <4 x i8>* %46, align 1, !tbaa !5
  %48 = sub nsw i64 %36, %38
  %49 = getelementptr inbounds [500 x i8], [500 x i8]* %2, i64 0, i64 %48
  %50 = getelementptr inbounds i8, i8* %49, i64 -3
  %51 = bitcast i8* %50 to <4 x i8>*
  %52 = load <4 x i8>, <4 x i8>* %51, align 1, !tbaa !5
  %53 = shufflevector <4 x i8> %52, <4 x i8> poison, <4 x i32> <i32 3, i32 2, i32 1, i32 0>
  %54 = getelementptr inbounds i8, i8* %49, i64 -7
  %55 = bitcast i8* %54 to <4 x i8>*
  %56 = load <4 x i8>, <4 x i8>* %55, align 1, !tbaa !5
  %57 = shufflevector <4 x i8> %56, <4 x i8> poison, <4 x i32> <i32 3, i32 2, i32 1, i32 0>
  %58 = icmp eq <4 x i8> %44, %53
  %59 = icmp eq <4 x i8> %47, %57
  %60 = zext <4 x i1> %58 to <4 x i32>
  %61 = zext <4 x i1> %59 to <4 x i32>
  %62 = add <4 x i32> %39, %60
  %63 = add <4 x i32> %40, %61
  %64 = add nuw i64 %38, 8
  %65 = icmp eq i64 %64, %31
  br i1 %65, label %66, label %37, !llvm.loop !8

66:                                               ; preds = %37
  %67 = add <4 x i32> %63, %62
  %68 = call i32 @llvm.vector.reduce.add.v4i32(<4 x i32> %67)
  br i1 %32, label %86, label %69

69:                                               ; preds = %33, %66
  %70 = phi i64 [ 0, %33 ], [ %31, %66 ]
  %71 = phi i32 [ 0, %33 ], [ %68, %66 ]
  br label %72

72:                                               ; preds = %69, %72
  %73 = phi i64 [ %84, %72 ], [ %70, %69 ]
  %74 = phi i32 [ %83, %72 ], [ %71, %69 ]
  %75 = add nuw nsw i64 %73, %35
  %76 = getelementptr inbounds [500 x i8], [500 x i8]* %2, i64 0, i64 %75
  %77 = load i8, i8* %76, align 1, !tbaa !5
  %78 = sub nsw i64 %36, %73
  %79 = getelementptr inbounds [500 x i8], [500 x i8]* %2, i64 0, i64 %78
  %80 = load i8, i8* %79, align 1, !tbaa !5
  %81 = icmp eq i8 %77, %80
  %82 = zext i1 %81 to i32
  %83 = add nuw nsw i32 %74, %82
  %84 = add nuw nsw i64 %73, 1
  %85 = icmp eq i64 %84, %27
  br i1 %85, label %86, label %72, !llvm.loop !11

86:                                               ; preds = %72, %66
  %87 = phi i32 [ %68, %66 ], [ %83, %72 ]
  %88 = icmp ugt i32 %87, %29
  br i1 %88, label %89, label %124

89:                                               ; preds = %86, %89
  %90 = phi i64 [ %94, %89 ], [ %35, %86 ]
  %91 = getelementptr inbounds [500 x i8], [500 x i8]* %2, i64 0, i64 %90
  %92 = load i8, i8* %91, align 1, !tbaa !5
  call void @llvm.lifetime.start.p0i8(i64 1, i8* nonnull %1)
  store i8 %92, i8* %1, align 1, !tbaa !5
  %93 = call nonnull align 8 dereferenceable(8) %"class.std::basic_ostream"* @_ZSt16__ostream_insertIcSt11char_traitsIcEERSt13basic_ostreamIT_T0_ES6_PKS3_l(%"class.std::basic_ostream"* nonnull align 8 dereferenceable(8) @_ZSt4cout, i8* nonnull %1, i64 1)
  call void @llvm.lifetime.end.p0i8(i64 1, i8* nonnull %1)
  %94 = add nuw nsw i64 %90, 1
  %95 = icmp eq i64 %94, %34
  br i1 %95, label %96, label %89, !llvm.loop !13

96:                                               ; preds = %89
  %97 = load i8*, i8** bitcast (%"class.std::basic_ostream"* @_ZSt4cout to i8**), align 8, !tbaa !14
  %98 = getelementptr i8, i8* %97, i64 -24
  %99 = bitcast i8* %98 to i64*
  %100 = load i64, i64* %99, align 8
  %101 = add nsw i64 %100, 240
  %102 = getelementptr inbounds i8, i8* bitcast (%"class.std::basic_ostream"* @_ZSt4cout to i8*), i64 %101
  %103 = bitcast i8* %102 to %"class.std::ctype"**
  %104 = load %"class.std::ctype"*, %"class.std::ctype"** %103, align 8, !tbaa !16
  %105 = icmp eq %"class.std::ctype"* %104, null
  br i1 %105, label %106, label %107

106:                                              ; preds = %96
  call void @_ZSt16__throw_bad_castv() #11
  unreachable

107:                                              ; preds = %96
  %108 = getelementptr inbounds %"class.std::ctype", %"class.std::ctype"* %104, i64 0, i32 8
  %109 = load i8, i8* %108, align 8, !tbaa !20
  %110 = icmp eq i8 %109, 0
  br i1 %110, label %114, label %111

111:                                              ; preds = %107
  %112 = getelementptr inbounds %"class.std::ctype", %"class.std::ctype"* %104, i64 0, i32 9, i64 10
  %113 = load i8, i8* %112, align 1, !tbaa !5
  br label %120

114:                                              ; preds = %107
  call void @_ZNKSt5ctypeIcE13_M_widen_initEv(%"class.std::ctype"* nonnull align 8 dereferenceable(570) %104)
  %115 = bitcast %"class.std::ctype"* %104 to i8 (%"class.std::ctype"*, i8)***
  %116 = load i8 (%"class.std::ctype"*, i8)**, i8 (%"class.std::ctype"*, i8)*** %115, align 8, !tbaa !14
  %117 = getelementptr inbounds i8 (%"class.std::ctype"*, i8)*, i8 (%"class.std::ctype"*, i8)** %116, i64 6
  %118 = load i8 (%"class.std::ctype"*, i8)*, i8 (%"class.std::ctype"*, i8)** %117, align 8
  %119 = call signext i8 %118(%"class.std::ctype"* nonnull align 8 dereferenceable(570) %104, i8 signext 10)
  br label %120

120:                                              ; preds = %111, %114
  %121 = phi i8 [ %113, %111 ], [ %119, %114 ]
  %122 = call nonnull align 8 dereferenceable(8) %"class.std::basic_ostream"* @_ZNSo3putEc(%"class.std::basic_ostream"* nonnull align 8 dereferenceable(8) @_ZSt4cout, i8 signext %121)
  %123 = call nonnull align 8 dereferenceable(8) %"class.std::basic_ostream"* @_ZNSo5flushEv(%"class.std::basic_ostream"* nonnull align 8 dereferenceable(8) %122)
  br label %124

124:                                              ; preds = %86, %120
  %125 = add nuw nsw i64 %35, 1
  %126 = add nuw nsw i64 %34, 1
  %127 = icmp eq i64 %125, %26
  br i1 %127, label %128, label %33, !llvm.loop !22

128:                                              ; preds = %124, %10
  %129 = add nuw nsw i64 %14, 1
  %130 = add nuw nsw i64 %13, 1
  %131 = icmp eq i64 %130, %9
  %132 = add i32 %11, 1
  br i1 %131, label %133, label %10, !llvm.loop !23

133:                                              ; preds = %128, %0
  call void @llvm.lifetime.end.p0i8(i64 500, i8* nonnull %3) #9
  ret i32 0
}

; Function Attrs: argmemonly mustprogress nofree nosync nounwind willreturn
declare void @llvm.lifetime.start.p0i8(i64 immarg, i8* nocapture) #4

; Function Attrs: argmemonly mustprogress nofree nounwind readonly willreturn
declare i64 @strlen(i8* nocapture) local_unnamed_addr #5

; Function Attrs: argmemonly mustprogress nofree nosync nounwind willreturn
declare void @llvm.lifetime.end.p0i8(i64 immarg, i8* nocapture) #4

declare void @_ZSt17__istream_extractRSiPcl(%"class.std::basic_istream"* nonnull align 8 dereferenceable(16), i8*, i64) local_unnamed_addr #0

declare nonnull align 8 dereferenceable(8) %"class.std::basic_ostream"* @_ZSt16__ostream_insertIcSt11char_traitsIcEERSt13basic_ostreamIT_T0_ES6_PKS3_l(%"class.std::basic_ostream"* nonnull align 8 dereferenceable(8), i8*, i64) local_unnamed_addr #0

declare nonnull align 8 dereferenceable(8) %"class.std::basic_ostream"* @_ZNSo3putEc(%"class.std::basic_ostream"* nonnull align 8 dereferenceable(8), i8 signext) local_unnamed_addr #0

declare nonnull align 8 dereferenceable(8) %"class.std::basic_ostream"* @_ZNSo5flushEv(%"class.std::basic_ostream"* nonnull align 8 dereferenceable(8)) local_unnamed_addr #0

; Function Attrs: noreturn
declare void @_ZSt16__throw_bad_castv() local_unnamed_addr #6

declare void @_ZNKSt5ctypeIcE13_M_widen_initEv(%"class.std::ctype"* nonnull align 8 dereferenceable(570)) local_unnamed_addr #0

; Function Attrs: sspstrong uwtable
define internal void @_GLOBAL__sub_I_754.cpp() #7 section ".text.startup" {
  tail call void @_ZNSt8ios_base4InitC1Ev(%"class.std::ios_base::Init"* nonnull align 1 dereferenceable(1) @_ZStL8__ioinit)
  %1 = tail call i32 @__cxa_atexit(void (i8*)* bitcast (void (%"class.std::ios_base::Init"*)* @_ZNSt8ios_base4InitD1Ev to void (i8*)*), i8* getelementptr inbounds (%"class.std::ios_base::Init", %"class.std::ios_base::Init"* @_ZStL8__ioinit, i64 0, i32 0), i8* nonnull @__dso_handle) #9
  ret void
}

; Function Attrs: nofree nosync nounwind readnone willreturn
declare i32 @llvm.vector.reduce.add.v4i32(<4 x i32>) #8


!llvm.module.flags = !{!0, !1, !2, !3}
!llvm.ident = !{!4}

!0 = !{i32 1, !"wchar_size", i32 4}
!1 = !{i32 7, !"PIC Level", i32 2}
!2 = !{i32 7, !"PIE Level", i32 2}
!3 = !{i32 7, !"uwtable", i32 1}
!4 = !{!"clang version 13.0.0"}
!5 = !{!6, !6, i64 0}
!6 = !{!"omnipotent char", !7, i64 0}
!7 = !{!"Simple C++ TBAA"}
!8 = distinct !{!8, !9, !10}
!9 = !{!"llvm.loop.mustprogress"}
!10 = !{!"llvm.loop.isvectorized", i32 1}
!11 = distinct !{!11, !9, !12, !10}
!12 = !{!"llvm.loop.unroll.runtime.disable"}
!13 = distinct !{!13, !9}
!14 = !{!15, !15, i64 0}
!15 = !{!"vtable pointer", !7, i64 0}
!16 = !{!17, !18, i64 240}
!17 = !{!"_ZTSSt9basic_iosIcSt11char_traitsIcEE", !18, i64 216, !6, i64 224, !19, i64 225, !18, i64 232, !18, i64 240, !18, i64 248, !18, i64 256}
!18 = !{!"any pointer", !6, i64 0}
!19 = !{!"bool", !6, i64 0}
!20 = !{!21, !6, i64 56}
!21 = !{!"_ZTSSt5ctypeIcE", !18, i64 16, !19, i64 24, !18, i64 32, !18, i64 40, !18, i64 48, !6, i64 56, !6, i64 57, !6, i64 313, !6, i64 569}
!22 = distinct !{!22, !9}
!23 = distinct !{!23, !9}
